; Function Attrs: mustprogress uwtable
define void @_ZNK7openvdb5v11_02io7Archive4copyEv(ptr noalias nocapture writeonly sret(%"class.std::shared_ptr.21") align 8 %agg.result, ptr noundef nonnull align 8 dereferenceable(65) %this) unnamed_addr #6 align 2 personality ptr @__gxx_personality_v0 {
entry:
  %call = tail call noalias noundef nonnull dereferenceable(72) ptr @_Znwm(i64 noundef 72) #35
  store ptr getelementptr inbounds ({ [6 x ptr] }, ptr @_ZTVN7openvdb5v11_02io7ArchiveE, i64 0, i32 0, i64 2), ptr %call, align 8
  %mFileVersion.i = getelementptr inbounds i8, ptr %call, i64 8
  %mFileVersion2.i = getelementptr inbounds i8, ptr %this, i64 8
  tail call void @llvm.memcpy.p0.p0.i64(ptr noundef nonnull align 8 dereferenceable(12) %mFileVersion.i, ptr noundef nonnull align 8 dereferenceable(12) %mFileVersion2.i, i64 12, i1 false)
  %mUuid.i = getelementptr inbounds i8, ptr %call, i64 24
  %mUuid3.i = getelementptr inbounds i8, ptr %this, i64 24
  invoke void @_ZNSt7__cxx1112basic_stringIcSt11char_traitsIcESaIcEEC1ERKS4_(ptr noundef nonnull align 8 dereferenceable(32) %mUuid.i, ptr noundef nonnull align 8 dereferenceable(32) %mUuid3.i)
          to label %invoke.cont unwind label %lpad

invoke.cont:                                      ; preds = %entry
  %mInputHasGridOffsets.i = getelementptr inbounds i8, ptr %call, i64 56
  %mInputHasGridOffsets4.i = getelementptr inbounds i8, ptr %this, i64 56
  tail call void @llvm.memcpy.p0.p0.i64(ptr noundef nonnull align 8 dereferenceable(9) %mInputHasGridOffsets.i, ptr noundef nonnull align 8 dereferenceable(9) %mInputHasGridOffsets4.i, i64 9, i1 false)
  store ptr %call, ptr %agg.result, align 8
  %_M_refcount.i.i = getelementptr inbounds i8, ptr %agg.result, i64 8
  store ptr null, ptr %_M_refcount.i.i, align 8
  %call.i.i.i.i = invoke noalias noundef nonnull dereferenceable(24) ptr @_Znwm(i64 noundef 24) #35
          to label %_ZNSt10shared_ptrIN7openvdb5v11_02io7ArchiveEEC2IS3_vEEPT_.exit unwind label %lpad.i.i.i.i

lpad.i.i.i.i:                                     ; preds = %invoke.cont
  %0 = landingpad { ptr, i32 }
          catch ptr null
  %1 = extractvalue { ptr, i32 } %0, 0
  %2 = tail call ptr @__cxa_begin_catch(ptr %1) #25
  %vtable.i.i.i.i = load ptr, ptr %call, align 8
  %vfn.i.i.i.i = getelementptr inbounds i8, ptr %vtable.i.i.i.i, i64 8
  %3 = load ptr, ptr %vfn.i.i.i.i, align 8
  tail call void %3(ptr noundef nonnull align 8 dereferenceable(65) %call) #25
  invoke void @__cxa_rethrow() #38
          to label %unreachable.i.i.i.i unwind label %lpad3.i.i.i.i

lpad3.i.i.i.i:                                    ; preds = %lpad.i.i.i.i
  %4 = landingpad { ptr, i32 }
          cleanup
  invoke void @__cxa_end_catch()
          to label %common.resume unwind label %terminate.lpad.i.i.i.i

common.resume:                                    ; preds = %lpad3.i.i.i.i, %lpad
  %common.resume.op = phi { ptr, i32 } [ %7, %lpad ], [ %4, %lpad3.i.i.i.i ]
  resume { ptr, i32 } %common.resume.op

terminate.lpad.i.i.i.i:                           ; preds = %lpad3.i.i.i.i
  %5 = landingpad { ptr, i32 }
          catch ptr null
  %6 = extractvalue { ptr, i32 } %5, 0
  tail call void @__clang_call_terminate(ptr %6) #37
  unreachable

unreachable.i.i.i.i:                              ; preds = %lpad.i.i.i.i
  unreachable

_ZNSt10shared_ptrIN7openvdb5v11_02io7ArchiveEEC2IS3_vEEPT_.exit: ; preds = %invoke.cont
  %_M_use_count.i.i.i.i.i.i = getelementptr inbounds i8, ptr %call.i.i.i.i, i64 8
  store i32 1, ptr %_M_use_count.i.i.i.i.i.i, align 8
  %_M_weak_count.i.i.i.i.i.i = getelementptr inbounds i8, ptr %call.i.i.i.i, i64 12
  store i32 1, ptr %_M_weak_count.i.i.i.i.i.i, align 4
  store ptr getelementptr inbounds ({ [7 x ptr] }, ptr @_ZTVSt15_Sp_counted_ptrIPN7openvdb5v11_02io7ArchiveELN9__gnu_cxx12_Lock_policyE2EE, i64 0, i32 0, i64 2), ptr %call.i.i.i.i, align 8
  %_M_ptr.i.i.i.i.i = getelementptr inbounds i8, ptr %call.i.i.i.i, i64 16
  store ptr %call, ptr %_M_ptr.i.i.i.i.i, align 8
  store ptr %call.i.i.i.i, ptr %_M_refcount.i.i, align 8
  ret void

lpad:                                             ; preds = %entry
  %7 = landingpad { ptr, i32 }
          cleanup
  tail call void @_ZdlPv(ptr noundef nonnull %call) #36
  br label %common.resume
}